target datalayout = "e-m:e-p270:32:32-p271:32:32-p272:64:64-i64:64-i128:128-f80:128-n8:16:32:64-S128"
target triple = "x86_64-pc-linux-gnu"

%"struct.tbb::detail::d1::intrusive_list_node" = type { ptr, ptr }
%"struct.std::atomic.4" = type { %"struct.std::__atomic_base.5" }
%"struct.std::__atomic_base.5" = type { i32 }
%"struct.tbb::detail::r1::arena_base" = type { %"struct.tbb::detail::d0::padded.11", %"struct.std::atomic.4", %"struct.std::atomic.4", %"struct.std::atomic.4", [4 x i8], %"class.tbb::detail::r1::task_stream", %"class.tbb::detail::r1::task_stream", %"class.tbb::detail::r1::task_stream.15", i32, i32, %"struct.std::atomic", %"class.tbb::detail::r1::atomic_flag", %"class.tbb::detail::r1::observer_list", ptr, ptr, ptr, %"class.tbb::detail::r1::concurrent_monitor", %"class.tbb::detail::r1::arena_co_cache", %"class.tbb::detail::r1::atomic_flag", i32, i32, i32, i32, %"class.tbb::detail::r1::threading_control_client" }
%"struct.tbb::detail::d0::padded.11" = type { %"struct.tbb::detail::d0::padded_base.12" }
%"struct.tbb::detail::d0::padded_base.12" = type { %"struct.tbb::detail::d1::intrusive_list_node", [112 x i8] }
%"class.tbb::detail::r1::task_stream" = type <{ %"struct.std::atomic.13", ptr, i32, [4 x i8] }>
%"struct.std::atomic.13" = type { %"struct.std::__atomic_base.14" }
%"struct.std::__atomic_base.14" = type { i64 }
%"class.tbb::detail::r1::task_stream.15" = type <{ %"struct.std::atomic.13", ptr, i32, [4 x i8] }>
%"struct.std::atomic" = type { %"struct.std::__atomic_base" }
%"struct.std::__atomic_base" = type { i8 }
%"class.tbb::detail::r1::observer_list" = type { %"struct.std::atomic.18", %"struct.std::atomic.18", %"class.tbb::detail::d0::aligned_space", ptr }
%"struct.std::atomic.18" = type { %"struct.std::__atomic_base.19" }
%"struct.std::__atomic_base.19" = type { ptr }
%"class.tbb::detail::d0::aligned_space" = type { [8 x i8] }
%"class.tbb::detail::r1::concurrent_monitor" = type { %"class.tbb::detail::r1::concurrent_monitor_base.base", [4 x i8] }
%"class.tbb::detail::r1::concurrent_monitor_base.base" = type <{ %"class.tbb::detail::r1::concurrent_monitor_mutex", %"class.tbb::detail::r1::circular_doubly_linked_list_with_sentinel", %"struct.std::atomic.4" }>
%"class.tbb::detail::r1::concurrent_monitor_mutex" = type { %"struct.std::atomic.0", %"struct.std::atomic.0" }
%"struct.std::atomic.0" = type { %"struct.std::__atomic_base.1" }
%"struct.std::__atomic_base.1" = type { i32 }
%"class.tbb::detail::r1::circular_doubly_linked_list_with_sentinel" = type { %"struct.std::atomic.13", %"struct.tbb::detail::r1::circular_doubly_linked_list_with_sentinel::base_node" }
%"struct.tbb::detail::r1::circular_doubly_linked_list_with_sentinel::base_node" = type { ptr, ptr }
%"class.tbb::detail::r1::arena_co_cache" = type <{ ptr, i32, i32, %"class.tbb::detail::d1::spin_mutex", [7 x i8] }>
%"class.tbb::detail::d1::spin_mutex" = type { %"struct.std::atomic" }
%"class.tbb::detail::r1::atomic_flag" = type { %"struct.std::atomic.13" }
%"class.tbb::detail::r1::threading_control_client" = type { ptr, ptr }

; Function Attrs: mustprogress nounwind sspstrong uwtable
define linkonce_odr noundef i32 @_ZStanSt12memory_orderSt23__memory_order_modifier(i32 noundef %0, i32 noundef %1) #1 comdat {
  %3 = alloca i32, align 4
  %4 = alloca i32, align 4
  store i32 %0, ptr %3, align 4, !tbaa !102
  store i32 %1, ptr %4, align 4, !tbaa !334
  %5 = load i32, ptr %3, align 4, !tbaa !102
  %6 = load i32, ptr %4, align 4, !tbaa !334
  %7 = and i32 %5, %6
  ret i32 %7
}

; Function Attrs: alwaysinline mustprogress nounwind sspstrong uwtable
define linkonce_odr void @_ZNSt13__atomic_baseIjE5storeEjSt12memory_order(ptr noundef nonnull align 4 dereferenceable(4) %0, i32 noundef %1, i32 noundef %2) #5 comdat align 2 {
  %4 = alloca ptr, align 8
  %5 = alloca i32, align 4
  %6 = alloca i32, align 4
  %7 = alloca i32, align 4
  %8 = alloca i32, align 4
  store ptr %0, ptr %4, align 8, !tbaa !109
  store i32 %1, ptr %5, align 4, !tbaa !79
  store i32 %2, ptr %6, align 4, !tbaa !102
  %9 = load ptr, ptr %4, align 8
  call void @llvm.lifetime.start.p0(i64 4, ptr %7) #12
  %10 = load i32, ptr %6, align 4, !tbaa !102
  %11 = call noundef i32 @_ZStanSt12memory_orderSt23__memory_order_modifier(i32 noundef %10, i32 noundef 65535)
  store i32 %11, ptr %7, align 4, !tbaa !102
  br label %12

12:                                               ; preds = %3
  br label %13

13:                                               ; preds = %12
  br label %14

14:                                               ; preds = %13
  br label %15

15:                                               ; preds = %14
  br label %16

16:                                               ; preds = %15
  br label %17

17:                                               ; preds = %16
  br label %18

18:                                               ; preds = %17
  br label %19

19:                                               ; preds = %18
  br label %20

20:                                               ; preds = %19
  %21 = getelementptr inbounds nuw %"struct.std::__atomic_base.5", ptr %9, i32 0, i32 0
  %22 = load i32, ptr %6, align 4, !tbaa !102
  %23 = load i32, ptr %5, align 4, !tbaa !79
  store i32 %23, ptr %8, align 4, !tbaa !79
  switch i32 %22, label %24 [
    i32 3, label %26
    i32 5, label %28
  ]

24:                                               ; preds = %20
  %25 = load i32, ptr %8, align 4
  store atomic i32 %25, ptr %21 monotonic, align 4
  br label %30

26:                                               ; preds = %20
  %27 = load i32, ptr %8, align 4
  store atomic i32 %27, ptr %21 release, align 4
  br label %30

28:                                               ; preds = %20
  %29 = load i32, ptr %8, align 4
  store atomic i32 %29, ptr %21 seq_cst, align 4
  br label %30

30:                                               ; preds = %28, %26, %24
  call void @llvm.lifetime.end.p0(i64 4, ptr %7) #12
  ret void
}

; Function Attrs: alwaysinline mustprogress nounwind sspstrong uwtable
define linkonce_odr noundef i32 @_ZNKSt13__atomic_baseIjE4loadESt12memory_order(ptr noundef nonnull align 4 dereferenceable(4) %0, i32 noundef %1) #5 comdat align 2 {
  %3 = alloca ptr, align 8
  %4 = alloca i32, align 4
  %5 = alloca i32, align 4
  %6 = alloca i32, align 4
  store ptr %0, ptr %3, align 8, !tbaa !109
  store i32 %1, ptr %4, align 4, !tbaa !102
  %7 = load ptr, ptr %3, align 8
  call void @llvm.lifetime.start.p0(i64 4, ptr %5) #12
  %8 = load i32, ptr %4, align 4, !tbaa !102
  %9 = call noundef i32 @_ZStanSt12memory_orderSt23__memory_order_modifier(i32 noundef %8, i32 noundef 65535)
  store i32 %9, ptr %5, align 4, !tbaa !102
  br label %10

10:                                               ; preds = %2
  br label %11

11:                                               ; preds = %10
  br label %12

12:                                               ; preds = %11
  br label %13

13:                                               ; preds = %12
  br label %14

14:                                               ; preds = %13
  br label %15

15:                                               ; preds = %14
  %16 = getelementptr inbounds nuw %"struct.std::__atomic_base.5", ptr %7, i32 0, i32 0
  %17 = load i32, ptr %4, align 4, !tbaa !102
  switch i32 %17, label %18 [
    i32 1, label %20
    i32 2, label %20
    i32 5, label %22
  ]

18:                                               ; preds = %15
  %19 = load atomic i32, ptr %16 monotonic, align 4
  store i32 %19, ptr %6, align 4
  br label %24

20:                                               ; preds = %15, %15
  %21 = load atomic i32, ptr %16 acquire, align 4
  store i32 %21, ptr %6, align 4
  br label %24

22:                                               ; preds = %15
  %23 = load atomic i32, ptr %16 seq_cst, align 4
  store i32 %23, ptr %6, align 4
  br label %24

24:                                               ; preds = %22, %20, %18
  %25 = load i32, ptr %6, align 4, !tbaa !79
  call void @llvm.lifetime.end.p0(i64 4, ptr %5) #12
  ret i32 %25
}

; Function Attrs: mustprogress nounwind sspstrong uwtable
define noundef i32 @_ZN3tbb6detail2r15arena18update_concurrencyEj(ptr noundef nonnull align 128 dereferenceable(768) %0, i32 noundef %1) #1 align 2 {
  %3 = alloca ptr, align 8
  %4 = alloca i32, align 4
  %5 = alloca i32, align 4
  store ptr %0, ptr %3, align 8, !tbaa !43
  store i32 %1, ptr %4, align 4, !tbaa !79
  %6 = load ptr, ptr %3, align 8
  call void @llvm.lifetime.start.p0(i64 4, ptr %5) #12
  %7 = load i32, ptr %4, align 4, !tbaa !79
  %8 = getelementptr inbounds nuw %"struct.tbb::detail::r1::arena_base", ptr %6, i32 0, i32 1
  %9 = call noundef i32 @_ZNKSt13__atomic_baseIjE4loadESt12memory_order(ptr noundef nonnull align 4 dereferenceable(4) %8, i32 noundef 0) #12
  %10 = sub i32 %7, %9
  store i32 %10, ptr %5, align 4, !tbaa !79
  %11 = load i32, ptr %5, align 4, !tbaa !79
  %12 = icmp ne i32 %11, 0
  br i1 %12, label %13, label %16

13:                                               ; preds = %2
  %14 = getelementptr inbounds nuw %"struct.tbb::detail::r1::arena_base", ptr %6, i32 0, i32 1
  %15 = load i32, ptr %4, align 4, !tbaa !79
  call void @_ZNSt13__atomic_baseIjE5storeEjSt12memory_order(ptr noundef nonnull align 4 dereferenceable(4) %14, i32 noundef %15, i32 noundef 0) #12
  br label %16

16:                                               ; preds = %13, %2
  %17 = load i32, ptr %5, align 4, !tbaa !79
  call void @llvm.lifetime.end.p0(i64 4, ptr %5) #12
  ret i32 %17
}