; Function Attrs: mustprogress nofree norecurse nounwind sspstrong willreturn memory(argmem: readwrite) uwtable
define noundef i32 @_ZN3tbb6detail2r15arena18update_concurrencyEj(ptr noundef nonnull align 128 captures(none) dereferenceable(768) %0, i32 noundef %1) local_unnamed_addr #7 align 2 {
  %3 = getelementptr inbounds nuw i8, ptr %0, i64 128
  %4 = load atomic i32, ptr %3 monotonic, align 128
  %.not = icmp eq i32 %1, %4
  br i1 %.not, label %6, label %5

5:                                                ; preds = %2
  store atomic i32 %1, ptr %3 monotonic, align 128
  br label %6

6:                                                ; preds = %5, %2
  %7 = sub i32 %1, %4
  ret i32 %7
}